target datalayout = "e-m:e-p270:32:32-p271:32:32-p272:64:64-i64:64-i128:128-f80:128-n8:16:32:64-S128"
target triple = "x86_64-pc-linux-gnu"

; Function Attrs: nounwind uwtable
define internal void @cfbr_encrypt_block(ptr noundef %0, ptr noundef %1, i32 noundef %2, ptr noundef %3, ptr noundef %4, i32 noundef %5, ptr noundef %6) #0 {
  %8 = alloca ptr, align 8
  %9 = alloca ptr, align 8
  %10 = alloca i32, align 4
  %11 = alloca ptr, align 8
  %12 = alloca ptr, align 8
  %13 = alloca i32, align 4
  %14 = alloca ptr, align 8
  %15 = alloca i32, align 4
  %16 = alloca i32, align 4
  %17 = alloca i32, align 4
  %18 = alloca [33 x i8], align 16
  %19 = alloca i32, align 4
  store ptr %0, ptr %8, align 8, !tbaa !3
  store ptr %1, ptr %9, align 8, !tbaa !3
  store i32 %2, ptr %10, align 4, !tbaa !13
  store ptr %3, ptr %11, align 8, !tbaa !10
  store ptr %4, ptr %12, align 8, !tbaa !3
  store i32 %5, ptr %13, align 4, !tbaa !13
  store ptr %6, ptr %14, align 8, !tbaa !10
  call void @llvm.lifetime.start.p0(i64 4, ptr %15) #3
  call void @llvm.lifetime.start.p0(i64 4, ptr %16) #3
  call void @llvm.lifetime.start.p0(i64 4, ptr %17) #3
  call void @llvm.lifetime.start.p0(i64 33, ptr %18) #3
  %20 = load i32, ptr %10, align 4, !tbaa !13
  %21 = icmp sle i32 %20, 0
  br i1 %21, label %25, label %22

22:                                               ; preds = %7
  %23 = load i32, ptr %10, align 4, !tbaa !13
  %24 = icmp sgt i32 %23, 128
  br i1 %24, label %25, label %26

25:                                               ; preds = %22, %7
  store i32 1, ptr %19, align 4
  br label %151

26:                                               ; preds = %22
  %27 = getelementptr inbounds [33 x i8], ptr %18, i64 0, i64 0
  %28 = load ptr, ptr %12, align 8, !tbaa !3
  call void @llvm.memcpy.p0.p0.i64(ptr align 16 %27, ptr align 1 %28, i64 16, i1 false)
  %29 = load ptr, ptr %14, align 8, !tbaa !10
  %30 = load ptr, ptr %12, align 8, !tbaa !3
  %31 = load ptr, ptr %12, align 8, !tbaa !3
  %32 = load ptr, ptr %11, align 8, !tbaa !10
  call void %29(ptr noundef %30, ptr noundef %31, ptr noundef %32)
  %33 = load i32, ptr %10, align 4, !tbaa !13
  %34 = add nsw i32 %33, 7
  %35 = sdiv i32 %34, 8
  store i32 %35, ptr %17, align 4, !tbaa !13
  %36 = load i32, ptr %13, align 4, !tbaa !13
  %37 = icmp ne i32 %36, 0
  br i1 %37, label %38, label %70

38:                                               ; preds = %26
  store i32 0, ptr %15, align 4, !tbaa !13
  br label %39

39:                                               ; preds = %66, %38
  %40 = load i32, ptr %15, align 4, !tbaa !13
  %41 = load i32, ptr %17, align 4, !tbaa !13
  %42 = icmp slt i32 %40, %41
  br i1 %42, label %43, label %69

43:                                               ; preds = %39
  %44 = load ptr, ptr %8, align 8, !tbaa !3
  %45 = load i32, ptr %15, align 4, !tbaa !13
  %46 = sext i32 %45 to i64
  %47 = getelementptr inbounds i8, ptr %44, i64 %46
  %48 = load i8, ptr %47, align 1, !tbaa !15
  %49 = zext i8 %48 to i32
  %50 = load ptr, ptr %12, align 8, !tbaa !3
  %51 = load i32, ptr %15, align 4, !tbaa !13
  %52 = sext i32 %51 to i64
  %53 = getelementptr inbounds i8, ptr %50, i64 %52
  %54 = load i8, ptr %53, align 1, !tbaa !15
  %55 = zext i8 %54 to i32
  %56 = xor i32 %49, %55
  %57 = trunc i32 %56 to i8
  %58 = load i32, ptr %15, align 4, !tbaa !13
  %59 = add nsw i32 16, %58
  %60 = sext i32 %59 to i64
  %61 = getelementptr inbounds [33 x i8], ptr %18, i64 0, i64 %60
  store i8 %57, ptr %61, align 1, !tbaa !15
  %62 = load ptr, ptr %9, align 8, !tbaa !3
  %63 = load i32, ptr %15, align 4, !tbaa !13
  %64 = sext i32 %63 to i64
  %65 = getelementptr inbounds i8, ptr %62, i64 %64
  store i8 %57, ptr %65, align 1, !tbaa !15
  br label %66

66:                                               ; preds = %43
  %67 = load i32, ptr %15, align 4, !tbaa !13
  %68 = add nsw i32 %67, 1
  store i32 %68, ptr %15, align 4, !tbaa !13
  br label %39, !llvm.loop !28

69:                                               ; preds = %39
  br label %102

70:                                               ; preds = %26
  store i32 0, ptr %15, align 4, !tbaa !13
  br label %71

71:                                               ; preds = %98, %70
  %72 = load i32, ptr %15, align 4, !tbaa !13
  %73 = load i32, ptr %17, align 4, !tbaa !13
  %74 = icmp slt i32 %72, %73
  br i1 %74, label %75, label %101

75:                                               ; preds = %71
  %76 = load ptr, ptr %8, align 8, !tbaa !3
  %77 = load i32, ptr %15, align 4, !tbaa !13
  %78 = sext i32 %77 to i64
  %79 = getelementptr inbounds i8, ptr %76, i64 %78
  %80 = load i8, ptr %79, align 1, !tbaa !15
  %81 = load i32, ptr %15, align 4, !tbaa !13
  %82 = add nsw i32 16, %81
  %83 = sext i32 %82 to i64
  %84 = getelementptr inbounds [33 x i8], ptr %18, i64 0, i64 %83
  store i8 %80, ptr %84, align 1, !tbaa !15
  %85 = zext i8 %80 to i32
  %86 = load ptr, ptr %12, align 8, !tbaa !3
  %87 = load i32, ptr %15, align 4, !tbaa !13
  %88 = sext i32 %87 to i64
  %89 = getelementptr inbounds i8, ptr %86, i64 %88
  %90 = load i8, ptr %89, align 1, !tbaa !15
  %91 = zext i8 %90 to i32
  %92 = xor i32 %85, %91
  %93 = trunc i32 %92 to i8
  %94 = load ptr, ptr %9, align 8, !tbaa !3
  %95 = load i32, ptr %15, align 4, !tbaa !13
  %96 = sext i32 %95 to i64
  %97 = getelementptr inbounds i8, ptr %94, i64 %96
  store i8 %93, ptr %97, align 1, !tbaa !15
  br label %98

98:                                               ; preds = %75
  %99 = load i32, ptr %15, align 4, !tbaa !13
  %100 = add nsw i32 %99, 1
  store i32 %100, ptr %15, align 4, !tbaa !13
  br label %71, !llvm.loop !29

101:                                              ; preds = %71
  br label %102

102:                                              ; preds = %101, %69
  %103 = load i32, ptr %10, align 4, !tbaa !13
  %104 = srem i32 %103, 8
  store i32 %104, ptr %16, align 4, !tbaa !13
  %105 = load i32, ptr %10, align 4, !tbaa !13
  %106 = sdiv i32 %105, 8
  store i32 %106, ptr %17, align 4, !tbaa !13
  %107 = load i32, ptr %16, align 4, !tbaa !13
  %108 = icmp eq i32 %107, 0
  br i1 %108, label %109, label %115

109:                                              ; preds = %102
  %110 = load ptr, ptr %12, align 8, !tbaa !3
  %111 = getelementptr inbounds [33 x i8], ptr %18, i64 0, i64 0
  %112 = load i32, ptr %17, align 4, !tbaa !13
  %113 = sext i32 %112 to i64
  %114 = getelementptr inbounds i8, ptr %111, i64 %113
  call void @llvm.memcpy.p0.p0.i64(ptr align 1 %110, ptr align 1 %114, i64 16, i1 false)
  br label %150

115:                                              ; preds = %102
  store i32 0, ptr %15, align 4, !tbaa !13
  br label %116

116:                                              ; preds = %146, %115
  %117 = load i32, ptr %15, align 4, !tbaa !13
  %118 = icmp slt i32 %117, 16
  br i1 %118, label %119, label %149

119:                                              ; preds = %116
  %120 = load i32, ptr %15, align 4, !tbaa !13
  %121 = load i32, ptr %17, align 4, !tbaa !13
  %122 = add nsw i32 %120, %121
  %123 = sext i32 %122 to i64
  %124 = getelementptr inbounds [33 x i8], ptr %18, i64 0, i64 %123
  %125 = load i8, ptr %124, align 1, !tbaa !15
  %126 = zext i8 %125 to i32
  %127 = load i32, ptr %16, align 4, !tbaa !13
  %128 = shl i32 %126, %127
  %129 = load i32, ptr %15, align 4, !tbaa !13
  %130 = load i32, ptr %17, align 4, !tbaa !13
  %131 = add nsw i32 %129, %130
  %132 = add nsw i32 %131, 1
  %133 = sext i32 %132 to i64
  %134 = getelementptr inbounds [33 x i8], ptr %18, i64 0, i64 %133
  %135 = load i8, ptr %134, align 1, !tbaa !15
  %136 = zext i8 %135 to i32
  %137 = load i32, ptr %16, align 4, !tbaa !13
  %138 = sub nsw i32 8, %137
  %139 = ashr i32 %136, %138
  %140 = or i32 %128, %139
  %141 = trunc i32 %140 to i8
  %142 = load ptr, ptr %12, align 8, !tbaa !3
  %143 = load i32, ptr %15, align 4, !tbaa !13
  %144 = sext i32 %143 to i64
  %145 = getelementptr inbounds i8, ptr %142, i64 %144
  store i8 %141, ptr %145, align 1, !tbaa !15
  br label %146

146:                                              ; preds = %119
  %147 = load i32, ptr %15, align 4, !tbaa !13
  %148 = add nsw i32 %147, 1
  store i32 %148, ptr %15, align 4, !tbaa !13
  br label %116, !llvm.loop !30

149:                                              ; preds = %116
  br label %150

150:                                              ; preds = %149, %109
  store i32 0, ptr %19, align 4
  br label %151

151:                                              ; preds = %150, %25
  call void @llvm.lifetime.end.p0(i64 33, ptr %18) #3
  call void @llvm.lifetime.end.p0(i64 4, ptr %17) #3
  call void @llvm.lifetime.end.p0(i64 4, ptr %16) #3
  call void @llvm.lifetime.end.p0(i64 4, ptr %15) #3
  %152 = load i32, ptr %19, align 4
  switch i32 %152, label %154 [
    i32 0, label %153
    i32 1, label %153
  ]

153:                                              ; preds = %151, %151
  ret void

154:                                              ; preds = %151
  unreachable
}

; Function Attrs: nounwind uwtable
define void @CRYPTO_cfb128_8_encrypt(ptr noundef %0, ptr noundef %1, i64 noundef %2, ptr noundef %3, ptr noundef %4, ptr noundef %5, i32 noundef %6, ptr noundef %7) #0 {
  %9 = alloca ptr, align 8
  %10 = alloca ptr, align 8
  %11 = alloca i64, align 8
  %12 = alloca ptr, align 8
  %13 = alloca ptr, align 8
  %14 = alloca ptr, align 8
  %15 = alloca i32, align 4
  %16 = alloca ptr, align 8
  %17 = alloca i64, align 8
  store ptr %0, ptr %9, align 8, !tbaa !3
  store ptr %1, ptr %10, align 8, !tbaa !3
  store i64 %2, ptr %11, align 8, !tbaa !8
  store ptr %3, ptr %12, align 8, !tbaa !10
  store ptr %4, ptr %13, align 8, !tbaa !3
  store ptr %5, ptr %14, align 8, !tbaa !11
  store i32 %6, ptr %15, align 4, !tbaa !13
  store ptr %7, ptr %16, align 8, !tbaa !10
  call void @llvm.lifetime.start.p0(i64 8, ptr %17) #3
  store i64 0, ptr %17, align 8, !tbaa !8
  br label %18

18:                                               ; preds = %33, %8
  %19 = load i64, ptr %17, align 8, !tbaa !8
  %20 = load i64, ptr %11, align 8, !tbaa !8
  %21 = icmp ult i64 %19, %20
  br i1 %21, label %22, label %36

22:                                               ; preds = %18
  %23 = load ptr, ptr %9, align 8, !tbaa !3
  %24 = load i64, ptr %17, align 8, !tbaa !8
  %25 = getelementptr inbounds nuw i8, ptr %23, i64 %24
  %26 = load ptr, ptr %10, align 8, !tbaa !3
  %27 = load i64, ptr %17, align 8, !tbaa !8
  %28 = getelementptr inbounds nuw i8, ptr %26, i64 %27
  %29 = load ptr, ptr %12, align 8, !tbaa !10
  %30 = load ptr, ptr %13, align 8, !tbaa !3
  %31 = load i32, ptr %15, align 4, !tbaa !13
  %32 = load ptr, ptr %16, align 8, !tbaa !10
  call void @cfbr_encrypt_block(ptr noundef %25, ptr noundef %28, i32 noundef 8, ptr noundef %29, ptr noundef %30, i32 noundef %31, ptr noundef %32)
  br label %33

33:                                               ; preds = %22
  %34 = load i64, ptr %17, align 8, !tbaa !8
  %35 = add i64 %34, 1
  store i64 %35, ptr %17, align 8, !tbaa !8
  br label %18, !llvm.loop !31

36:                                               ; preds = %18
  call void @llvm.lifetime.end.p0(i64 8, ptr %17) #3
  ret void
}