; Function Attrs: nounwind uwtable
define void @CRYPTO_cfb128_8_encrypt(ptr noundef readonly captures(none) %0, ptr noundef writeonly captures(none) %1, i64 noundef %2, ptr noundef %3, ptr noundef %4, ptr noundef readnone captures(none) %5, i32 noundef %6, ptr noundef readonly captures(none) %7) local_unnamed_addr #0 {
  %.sroa.0 = alloca [16 x i8], align 16
  %.not = icmp eq i64 %2, 0
  br i1 %.not, label %._crit_edge, label %.lr.ph

.lr.ph:                                           ; preds = %8
  %.not.i = icmp eq i32 %6, 0
  %.sroa.0.1..sroa_idx = getelementptr inbounds nuw i8, ptr %.sroa.0, i64 1
  %.sroa.4.1..sroa_idx = getelementptr inbounds nuw i8, ptr %4, i64 15
  br i1 %.not.i, label %.lr.ph.split.us, label %.lr.ph.split

.lr.ph.split.us:                                  ; preds = %.lr.ph, %.lr.ph.split.us
  %.010.us = phi i64 [ %14, %.lr.ph.split.us ], [ 0, %.lr.ph ]
  %9 = getelementptr inbounds nuw i8, ptr %0, i64 %.010.us
  %10 = getelementptr inbounds nuw i8, ptr %1, i64 %.010.us
  call void @llvm.lifetime.start.p0(i64 16, ptr nonnull %.sroa.0)
  call void @llvm.memcpy.p0.p0.i64(ptr noundef nonnull align 16 dereferenceable(16) %.sroa.0, ptr noundef nonnull align 1 dereferenceable(16) %4, i64 16, i1 false)
  tail call void %7(ptr noundef nonnull %4, ptr noundef nonnull %4, ptr noundef %3) #4
  %11 = load i8, ptr %9, align 1, !tbaa !7
  %12 = load i8, ptr %4, align 1, !tbaa !7
  %13 = xor i8 %12, %11
  store i8 %13, ptr %10, align 1, !tbaa !7
  call void @llvm.memcpy.p0.p0.i64(ptr noundef nonnull align 1 dereferenceable(15) %4, ptr noundef nonnull align 1 dereferenceable(15) %.sroa.0.1..sroa_idx, i64 15, i1 false)
  store i8 %11, ptr %.sroa.4.1..sroa_idx, align 1
  call void @llvm.lifetime.end.p0(i64 16, ptr nonnull %.sroa.0)
  %14 = add nuw i64 %.010.us, 1
  %exitcond12.not = icmp eq i64 %14, %2
  br i1 %exitcond12.not, label %._crit_edge, label %.lr.ph.split.us, !llvm.loop !21

.lr.ph.split:                                     ; preds = %.lr.ph, %.lr.ph.split
  %.010 = phi i64 [ %20, %.lr.ph.split ], [ 0, %.lr.ph ]
  %15 = getelementptr inbounds nuw i8, ptr %0, i64 %.010
  %16 = getelementptr inbounds nuw i8, ptr %1, i64 %.010
  call void @llvm.lifetime.start.p0(i64 16, ptr nonnull %.sroa.0)
  call void @llvm.memcpy.p0.p0.i64(ptr noundef nonnull align 16 dereferenceable(16) %.sroa.0, ptr noundef nonnull align 1 dereferenceable(16) %4, i64 16, i1 false)
  tail call void %7(ptr noundef nonnull %4, ptr noundef nonnull %4, ptr noundef %3) #4
  %17 = load i8, ptr %15, align 1, !tbaa !7
  %18 = load i8, ptr %4, align 1, !tbaa !7
  %19 = xor i8 %18, %17
  store i8 %19, ptr %16, align 1, !tbaa !7
  call void @llvm.memcpy.p0.p0.i64(ptr noundef nonnull align 1 dereferenceable(15) %4, ptr noundef nonnull align 1 dereferenceable(15) %.sroa.0.1..sroa_idx, i64 15, i1 false)
  store i8 %19, ptr %.sroa.4.1..sroa_idx, align 1
  call void @llvm.lifetime.end.p0(i64 16, ptr nonnull %.sroa.0)
  %20 = add nuw i64 %.010, 1
  %exitcond.not = icmp eq i64 %20, %2
  br i1 %exitcond.not, label %._crit_edge, label %.lr.ph.split, !llvm.loop !21

._crit_edge:                                      ; preds = %.lr.ph.split, %.lr.ph.split.us, %8
  ret void
}